; Function Attrs: mustprogress nounwind uwtable
define hidden void @_ZN5clang7targets15defineCPUMacrosERNS_12MacroBuilderEN4llvm9StringRefEb(ptr noundef nonnull align 8 dereferenceable(8) %0, ptr %1, i64 %2, i1 noundef zeroext %3) local_unnamed_addr #0 {
_ZN4llvmplERKNS_5TwineES2_.exit:
  %4 = alloca %"class.llvm::Twine", align 8
  %5 = alloca %"class.llvm::Twine", align 8
  %6 = alloca %"class.llvm::Twine", align 8
  %7 = alloca %"class.llvm::Twine", align 8
  %8 = alloca %"class.llvm::Twine", align 8
  %9 = alloca %"class.llvm::Twine", align 8
  %10 = alloca %"class.llvm::Twine", align 8
  %11 = alloca %"class.llvm::Twine", align 8
  %12 = getelementptr inbounds nuw i8, ptr %4, i64 32
  store i8 3, ptr %12, align 8, !alias.scope !15
  %13 = getelementptr inbounds nuw i8, ptr %4, i64 33
  store i8 5, ptr %13, align 1, !alias.scope !15
  store ptr @.str.1, ptr %4, align 8, !alias.scope !15
  %14 = getelementptr inbounds nuw i8, ptr %4, i64 16
  store ptr %1, ptr %14, align 8, !alias.scope !15
  %15 = getelementptr inbounds i8, ptr %4, i64 24
  store i64 %2, ptr %15, align 8, !alias.scope !15
  %16 = getelementptr inbounds nuw i8, ptr %5, i64 32
  %17 = getelementptr inbounds nuw i8, ptr %5, i64 33
  store i8 1, ptr %17, align 1
  store ptr @.str, ptr %5, align 8
  store i8 3, ptr %16, align 8
  call void @_ZN5clang12MacroBuilder11defineMacroERKN4llvm5TwineES4_(ptr noundef nonnull align 8 dereferenceable(8) %0, ptr noundef nonnull align 8 dereferenceable(34) %4, ptr noundef nonnull align 8 dereferenceable(34) %5)
  %18 = getelementptr inbounds nuw i8, ptr %7, i64 32
  store i8 3, ptr %18, align 8, !alias.scope !18
  %19 = getelementptr inbounds nuw i8, ptr %7, i64 33
  store i8 5, ptr %19, align 1, !alias.scope !18
  store ptr @.str.1, ptr %7, align 8, !alias.scope !18
  %20 = getelementptr inbounds nuw i8, ptr %7, i64 16
  store ptr %1, ptr %20, align 8, !alias.scope !18
  %21 = getelementptr inbounds i8, ptr %7, i64 24
  store i64 %2, ptr %21, align 8, !alias.scope !18
  store ptr %7, ptr %6, align 8, !alias.scope !21
  %22 = getelementptr inbounds nuw i8, ptr %6, i64 16
  store ptr @.str.1, ptr %22, align 8, !alias.scope !21
  %23 = getelementptr inbounds nuw i8, ptr %6, i64 32
  store i8 2, ptr %23, align 8, !alias.scope !21
  %24 = getelementptr inbounds nuw i8, ptr %6, i64 33
  store i8 3, ptr %24, align 1, !alias.scope !21
  %25 = getelementptr inbounds nuw i8, ptr %8, i64 32
  %26 = getelementptr inbounds nuw i8, ptr %8, i64 33
  store i8 1, ptr %26, align 1
  store ptr @.str, ptr %8, align 8
  store i8 3, ptr %25, align 8
  call void @_ZN5clang12MacroBuilder11defineMacroERKN4llvm5TwineES4_(ptr noundef nonnull align 8 dereferenceable(8) %0, ptr noundef nonnull align 8 dereferenceable(34) %6, ptr noundef nonnull align 8 dereferenceable(34) %8)
  br i1 %3, label %_ZN4llvmplERKNS_5TwineES2_.exit17, label %36

_ZN4llvmplERKNS_5TwineES2_.exit17:                ; preds = %_ZN4llvmplERKNS_5TwineES2_.exit
  %27 = getelementptr inbounds nuw i8, ptr %10, i64 32
  store i8 3, ptr %27, align 8, !alias.scope !26
  %28 = getelementptr inbounds nuw i8, ptr %10, i64 33
  store i8 5, ptr %28, align 1, !alias.scope !26
  store ptr @.str.2, ptr %10, align 8, !alias.scope !26
  %29 = getelementptr inbounds nuw i8, ptr %10, i64 16
  store ptr %1, ptr %29, align 8, !alias.scope !26
  %30 = getelementptr inbounds i8, ptr %10, i64 24
  store i64 %2, ptr %30, align 8, !alias.scope !26
  store ptr %10, ptr %9, align 8, !alias.scope !29
  %31 = getelementptr inbounds nuw i8, ptr %9, i64 16
  store ptr @.str.1, ptr %31, align 8, !alias.scope !29
  %32 = getelementptr inbounds nuw i8, ptr %9, i64 32
  store i8 2, ptr %32, align 8, !alias.scope !29
  %33 = getelementptr inbounds nuw i8, ptr %9, i64 33
  store i8 3, ptr %33, align 1, !alias.scope !29
  %34 = getelementptr inbounds nuw i8, ptr %11, i64 32
  %35 = getelementptr inbounds nuw i8, ptr %11, i64 33
  store i8 1, ptr %35, align 1
  store ptr @.str, ptr %11, align 8
  store i8 3, ptr %34, align 8
  call void @_ZN5clang12MacroBuilder11defineMacroERKN4llvm5TwineES4_(ptr noundef nonnull align 8 dereferenceable(8) %0, ptr noundef nonnull align 8 dereferenceable(34) %9, ptr noundef nonnull align 8 dereferenceable(34) %11)
  br label %36

36:                                               ; preds = %_ZN4llvmplERKNS_5TwineES2_.exit17, %_ZN4llvmplERKNS_5TwineES2_.exit
  ret void
}